target datalayout = "e-m:e-p270:32:32-p271:32:32-p272:64:64-i64:64-i128:128-f80:128-n8:16:32:64-S128"
target triple = "x86_64-pc-linux-gnu"

%struct.textlabel_t = type { ptr, ptr, ptr, i32, double, %struct.pointf_s, %struct.pointf_s, %struct.pointf_s, %union.anon, i8, i8, i8 }
%struct.pointf_s = type { double, double }
%union.anon = type { %struct.anon }
%struct.anon = type { ptr, i64 }
%struct.boxf = type { %struct.pointf_s, %struct.pointf_s }
%struct.Agraph_s = type { %struct.Agobj_s, %struct.Agdesc_s, %struct.dtlink_s_, %struct.dtlink_s_, ptr, ptr, ptr, ptr, ptr, ptr, ptr, ptr, ptr }
%struct.Agobj_s = type { %struct.Agtag_s, ptr }
%struct.Agtag_s = type { i32, i64 }
%struct.Agdesc_s = type { i8, [3 x i8] }
%struct.dtlink_s_ = type { ptr, %union.anon.2 }
%union.anon.2 = type { ptr }
%struct.Agedge_s = type { %struct.Agobj_s, %struct.dtlink_s_, %struct.dtlink_s_, ptr }
%struct.Agraphinfo_t = type { %struct.Agrec_s, ptr, ptr, %struct.boxf, [4 x %struct.pointf_s], i8, i8, i8, i8, i32, double, double, i16, ptr, ptr, ptr, ptr, i32, ptr, ptr, ptr, ptr, i16, i16, i32, ptr, ptr, ptr, ptr, ptr, i32, ptr, ptr, %struct.nlist_t, ptr, ptr, i32, i32, i8, i8, i32, i32, i32, ptr, ptr, ptr, ptr, i8, i8, i8, i8, i8 }
%struct.Agrec_s = type { ptr, ptr }
%struct.nlist_t = type { ptr, i64 }

@.str = private unnamed_addr constant [22 x i8] c"in label of graph %s\0A\00", align 1
@.str.1 = private unnamed_addr constant [21 x i8] c"in label of node %s\0A\00", align 1
@.str.2 = private unnamed_addr constant [27 x i8] c"in label of edge %s %s %s\0A\00", align 1
@.str.3 = private unnamed_addr constant [3 x i8] c"->\00", align 1
@.str.4 = private unnamed_addr constant [3 x i8] c"--\00", align 1
@stderr = external global ptr, align 8
@.str.5 = private unnamed_addr constant [58 x i8] c"integer overflow when trying to allocate %zu * %zu bytes\0A\00", align 1
@.str.6 = private unnamed_addr constant [49 x i8] c"out of memory when trying to allocate %zu bytes\0A\00", align 1

; Function Attrs: inlinehint nounwind uwtable
define internal ptr @gv_calloc(i64 noundef %0, i64 noundef %1) #3 {
  %3 = alloca i64, align 8
  %4 = alloca i64, align 8
  %5 = alloca ptr, align 8
  store i64 %0, ptr %3, align 8, !tbaa !27
  store i64 %1, ptr %4, align 8, !tbaa !27
  %6 = load i64, ptr %3, align 8, !tbaa !27
  %7 = icmp ugt i64 %6, 0
  br i1 %7, label %8, label %18

8:                                                ; preds = %2
  %9 = load i64, ptr %3, align 8, !tbaa !27
  %10 = udiv i64 -1, %9
  %11 = load i64, ptr %4, align 8, !tbaa !27
  %12 = icmp ult i64 %10, %11
  br i1 %12, label %13, label %18

13:                                               ; preds = %8
  %14 = load ptr, ptr @stderr, align 8, !tbaa !97
  %15 = load i64, ptr %3, align 8, !tbaa !27
  %16 = load i64, ptr %4, align 8, !tbaa !27
  %17 = call i32 (ptr, ptr, ...) @fprintf(ptr noundef %14, ptr noundef @.str.5, i64 noundef %15, i64 noundef %16) #13
  call void @graphviz_exit(i32 noundef 1) #15
  unreachable

18:                                               ; preds = %8, %2
  call void @llvm.lifetime.start.p0(i64 8, ptr %5) #13
  %19 = load i64, ptr %3, align 8, !tbaa !27
  %20 = load i64, ptr %4, align 8, !tbaa !27
  %21 = call noalias ptr @calloc(i64 noundef %19, i64 noundef %20) #16
  store ptr %21, ptr %5, align 8, !tbaa !26
  %22 = load i64, ptr %3, align 8, !tbaa !27
  %23 = icmp ugt i64 %22, 0
  br i1 %23, label %24, label %36

24:                                               ; preds = %18
  %25 = load i64, ptr %4, align 8, !tbaa !27
  %26 = icmp ugt i64 %25, 0
  br i1 %26, label %27, label %36

27:                                               ; preds = %24
  %28 = load ptr, ptr %5, align 8, !tbaa !26
  %29 = icmp eq ptr %28, null
  br i1 %29, label %30, label %36

30:                                               ; preds = %27
  %31 = load ptr, ptr @stderr, align 8, !tbaa !97
  %32 = load i64, ptr %3, align 8, !tbaa !27
  %33 = load i64, ptr %4, align 8, !tbaa !27
  %34 = mul i64 %32, %33
  %35 = call i32 (ptr, ptr, ...) @fprintf(ptr noundef %31, ptr noundef @.str.6, i64 noundef %34) #13
  call void @graphviz_exit(i32 noundef 1) #15
  unreachable

36:                                               ; preds = %27, %24, %18
  %37 = load ptr, ptr %5, align 8, !tbaa !26
  call void @llvm.lifetime.end.p0(i64 8, ptr %5) #13
  ret ptr %37
}

; Function Attrs: inlinehint nounwind uwtable
define internal ptr @gv_strdup(ptr noundef %0) #3 {
  %2 = alloca ptr, align 8
  %3 = alloca ptr, align 8
  store ptr %0, ptr %2, align 8, !tbaa !20
  call void @llvm.lifetime.start.p0(i64 8, ptr %3) #13
  %4 = load ptr, ptr %2, align 8, !tbaa !20
  %5 = call noalias ptr @strdup(ptr noundef %4) #13
  store ptr %5, ptr %3, align 8, !tbaa !20
  %6 = load ptr, ptr %3, align 8, !tbaa !20
  %7 = icmp eq ptr %6, null
  br i1 %7, label %8, label %14

8:                                                ; preds = %1
  %9 = load ptr, ptr @stderr, align 8, !tbaa !97
  %10 = load ptr, ptr %2, align 8, !tbaa !20
  %11 = call i64 @strlen(ptr noundef %10) #14
  %12 = add i64 %11, 1
  %13 = call i32 (ptr, ptr, ...) @fprintf(ptr noundef %9, ptr noundef @.str.6, i64 noundef %12) #13
  call void @graphviz_exit(i32 noundef 1) #15
  unreachable

14:                                               ; preds = %1
  %15 = load ptr, ptr %3, align 8, !tbaa !20
  call void @llvm.lifetime.end.p0(i64 8, ptr %3) #13
  ret ptr %15
}

; Function Attrs: inlinehint nounwind uwtable
define internal ptr @gv_alloc(i64 noundef %0) #3 {
  %2 = alloca i64, align 8
  store i64 %0, ptr %2, align 8, !tbaa !27
  %3 = load i64, ptr %2, align 8, !tbaa !27
  %4 = call ptr @gv_calloc(i64 noundef 1, i64 noundef %3)
  ret ptr %4
}

; Function Attrs: nounwind uwtable
define ptr @make_label(ptr noundef %0, ptr noundef %1, i32 noundef %2, double noundef %3, ptr noundef %4, ptr noundef %5) #0 {
  %7 = alloca ptr, align 8
  %8 = alloca ptr, align 8
  %9 = alloca i32, align 4
  %10 = alloca double, align 8
  %11 = alloca ptr, align 8
  %12 = alloca ptr, align 8
  %13 = alloca ptr, align 8
  %14 = alloca ptr, align 8
  %15 = alloca ptr, align 8
  %16 = alloca ptr, align 8
  %17 = alloca ptr, align 8
  %18 = alloca ptr, align 8
  store ptr %0, ptr %7, align 8, !tbaa !26
  store ptr %1, ptr %8, align 8, !tbaa !20
  store i32 %2, ptr %9, align 4, !tbaa !65
  store double %3, ptr %10, align 8, !tbaa !25
  store ptr %4, ptr %11, align 8, !tbaa !20
  store ptr %5, ptr %12, align 8, !tbaa !20
  call void @llvm.lifetime.start.p0(i64 8, ptr %13) #13
  %19 = call ptr @gv_alloc(i64 noundef 112)
  store ptr %19, ptr %13, align 8, !tbaa !8
  call void @llvm.lifetime.start.p0(i64 8, ptr %14) #13
  store ptr null, ptr %14, align 8, !tbaa !66
  call void @llvm.lifetime.start.p0(i64 8, ptr %15) #13
  store ptr null, ptr %15, align 8, !tbaa !66
  call void @llvm.lifetime.start.p0(i64 8, ptr %16) #13
  store ptr null, ptr %16, align 8, !tbaa !67
  call void @llvm.lifetime.start.p0(i64 8, ptr %17) #13
  store ptr null, ptr %17, align 8, !tbaa !69
  call void @llvm.lifetime.start.p0(i64 8, ptr %18) #13
  %20 = load ptr, ptr %7, align 8, !tbaa !26
  %21 = call i32 @agobjkind(ptr noundef %20)
  switch i32 %21, label %50 [
    i32 0, label %22
    i32 1, label %27
    i32 2, label %32
  ]

22:                                               ; preds = %6
  %23 = load ptr, ptr %7, align 8, !tbaa !26
  store ptr %23, ptr %15, align 8, !tbaa !66
  %24 = load ptr, ptr %15, align 8, !tbaa !66
  %25 = getelementptr inbounds nuw %struct.Agraph_s, ptr %24, i32 0, i32 11
  %26 = load ptr, ptr %25, align 8, !tbaa !71
  store ptr %26, ptr %14, align 8, !tbaa !66
  br label %50

27:                                               ; preds = %6
  %28 = load ptr, ptr %7, align 8, !tbaa !26
  store ptr %28, ptr %16, align 8, !tbaa !67
  %29 = load ptr, ptr %16, align 8, !tbaa !67
  %30 = call ptr @agraphof(ptr noundef %29)
  %31 = call ptr @agroot(ptr noundef %30)
  store ptr %31, ptr %14, align 8, !tbaa !66
  br label %50

32:                                               ; preds = %6
  %33 = load ptr, ptr %7, align 8, !tbaa !26
  store ptr %33, ptr %17, align 8, !tbaa !69
  %34 = load ptr, ptr %17, align 8, !tbaa !69
  %35 = getelementptr inbounds nuw %struct.Agobj_s, ptr %34, i32 0, i32 0
  %36 = load i32, ptr %35, align 8
  %37 = and i32 %36, 3
  %38 = icmp eq i32 %37, 2
  br i1 %38, label %39, label %41

39:                                               ; preds = %32
  %40 = load ptr, ptr %17, align 8, !tbaa !69
  br label %44

41:                                               ; preds = %32
  %42 = load ptr, ptr %17, align 8, !tbaa !69
  %43 = getelementptr inbounds %struct.Agedge_s, ptr %42, i64 -1
  br label %44

44:                                               ; preds = %41, %39
  %45 = phi ptr [ %40, %39 ], [ %43, %41 ]
  %46 = getelementptr inbounds nuw %struct.Agedge_s, ptr %45, i32 0, i32 3
  %47 = load ptr, ptr %46, align 8, !tbaa !80
  %48 = call ptr @agraphof(ptr noundef %47)
  %49 = call ptr @agroot(ptr noundef %48)
  store ptr %49, ptr %14, align 8, !tbaa !66
  br label %50

50:                                               ; preds = %6, %44, %27, %22
  %51 = load ptr, ptr %11, align 8, !tbaa !20
  %52 = load ptr, ptr %13, align 8, !tbaa !8
  %53 = getelementptr inbounds nuw %struct.textlabel_t, ptr %52, i32 0, i32 1
  store ptr %51, ptr %53, align 8, !tbaa !32
  %54 = load ptr, ptr %12, align 8, !tbaa !20
  %55 = load ptr, ptr %13, align 8, !tbaa !8
  %56 = getelementptr inbounds nuw %struct.textlabel_t, ptr %55, i32 0, i32 2
  store ptr %54, ptr %56, align 8, !tbaa !82
  %57 = load double, ptr %10, align 8, !tbaa !25
  %58 = load ptr, ptr %13, align 8, !tbaa !8
  %59 = getelementptr inbounds nuw %struct.textlabel_t, ptr %58, i32 0, i32 4
  store double %57, ptr %59, align 8, !tbaa !36
  %60 = load ptr, ptr %14, align 8, !tbaa !66
  %61 = getelementptr inbounds nuw %struct.Agobj_s, ptr %60, i32 0, i32 1
  %62 = load ptr, ptr %61, align 8, !tbaa !83
  %63 = getelementptr inbounds nuw %struct.Agraphinfo_t, ptr %62, i32 0, i32 8
  %64 = load i8, ptr %63, align 1, !tbaa !84
  %65 = zext i8 %64 to i32
  %66 = load ptr, ptr %13, align 8, !tbaa !8
  %67 = getelementptr inbounds nuw %struct.textlabel_t, ptr %66, i32 0, i32 3
  store i32 %65, ptr %67, align 8, !tbaa !21
  %68 = load i32, ptr %9, align 4, !tbaa !65
  %69 = and i32 %68, 4
  %70 = icmp ne i32 %69, 0
  br i1 %70, label %71, label %83

71:                                               ; preds = %50
  %72 = load ptr, ptr %8, align 8, !tbaa !20
  %73 = call ptr @gv_strdup(ptr noundef %72)
  %74 = load ptr, ptr %13, align 8, !tbaa !8
  %75 = getelementptr inbounds nuw %struct.textlabel_t, ptr %74, i32 0, i32 0
  store ptr %73, ptr %75, align 8, !tbaa !18
  %76 = load i32, ptr %9, align 4, !tbaa !65
  %77 = and i32 %76, 2
  %78 = icmp ne i32 %77, 0
  br i1 %78, label %79, label %82

79:                                               ; preds = %71
  %80 = load ptr, ptr %13, align 8, !tbaa !8
  %81 = getelementptr inbounds nuw %struct.textlabel_t, ptr %80, i32 0, i32 11
  store i8 1, ptr %81, align 2, !tbaa !95
  br label %82

82:                                               ; preds = %79, %71
  br label %180

83:                                               ; preds = %50
  %84 = load i32, ptr %9, align 4, !tbaa !65
  %85 = icmp eq i32 %84, 2
  br i1 %85, label %86, label %146

86:                                               ; preds = %83
  %87 = load ptr, ptr %8, align 8, !tbaa !20
  %88 = call ptr @gv_strdup(ptr noundef %87)
  %89 = load ptr, ptr %13, align 8, !tbaa !8
  %90 = getelementptr inbounds nuw %struct.textlabel_t, ptr %89, i32 0, i32 0
  store ptr %88, ptr %90, align 8, !tbaa !18
  %91 = load ptr, ptr %13, align 8, !tbaa !8
  %92 = getelementptr inbounds nuw %struct.textlabel_t, ptr %91, i32 0, i32 11
  store i8 1, ptr %92, align 2, !tbaa !95
  %93 = load ptr, ptr %7, align 8, !tbaa !26
  %94 = load ptr, ptr %13, align 8, !tbaa !8
  %95 = call i32 @make_html_label(ptr noundef %93, ptr noundef %94)
  %96 = icmp ne i32 %95, 0
  br i1 %96, label %97, label %145

97:                                               ; preds = %86
  %98 = load ptr, ptr %7, align 8, !tbaa !26
  %99 = call i32 @agobjkind(ptr noundef %98)
  switch i32 %99, label %144 [
    i32 0, label %100
    i32 1, label %104
    i32 2, label %108
  ]

100:                                              ; preds = %97
  %101 = load ptr, ptr %15, align 8, !tbaa !66
  %102 = call ptr @agnameof(ptr noundef %101)
  %103 = call i32 (i32, ptr, ...) @agerr(i32 noundef 3, ptr noundef @.str, ptr noundef %102)
  br label %144

104:                                              ; preds = %97
  %105 = load ptr, ptr %16, align 8, !tbaa !67
  %106 = call ptr @agnameof(ptr noundef %105)
  %107 = call i32 (i32, ptr, ...) @agerr(i32 noundef 3, ptr noundef @.str.1, ptr noundef %106)
  br label %144

108:                                              ; preds = %97
  %109 = load ptr, ptr %17, align 8, !tbaa !69
  %110 = getelementptr inbounds nuw %struct.Agobj_s, ptr %109, i32 0, i32 0
  %111 = load i32, ptr %110, align 8
  %112 = and i32 %111, 3
  %113 = icmp eq i32 %112, 3
  br i1 %113, label %114, label %116

114:                                              ; preds = %108
  %115 = load ptr, ptr %17, align 8, !tbaa !69
  br label %119

116:                                              ; preds = %108
  %117 = load ptr, ptr %17, align 8, !tbaa !69
  %118 = getelementptr inbounds %struct.Agedge_s, ptr %117, i64 1
  br label %119

119:                                              ; preds = %116, %114
  %120 = phi ptr [ %115, %114 ], [ %118, %116 ]
  %121 = getelementptr inbounds nuw %struct.Agedge_s, ptr %120, i32 0, i32 3
  %122 = load ptr, ptr %121, align 8, !tbaa !80
  %123 = call ptr @agnameof(ptr noundef %122)
  %124 = load ptr, ptr %14, align 8, !tbaa !66
  %125 = call i32 @agisdirected(ptr noundef %124)
  %126 = icmp ne i32 %125, 0
  %127 = select i1 %126, ptr @.str.3, ptr @.str.4
  %128 = load ptr, ptr %17, align 8, !tbaa !69
  %129 = getelementptr inbounds nuw %struct.Agobj_s, ptr %128, i32 0, i32 0
  %130 = load i32, ptr %129, align 8
  %131 = and i32 %130, 3
  %132 = icmp eq i32 %131, 2
  br i1 %132, label %133, label %135

133:                                              ; preds = %119
  %134 = load ptr, ptr %17, align 8, !tbaa !69
  br label %138

135:                                              ; preds = %119
  %136 = load ptr, ptr %17, align 8, !tbaa !69
  %137 = getelementptr inbounds %struct.Agedge_s, ptr %136, i64 -1
  br label %138

138:                                              ; preds = %135, %133
  %139 = phi ptr [ %134, %133 ], [ %137, %135 ]
  %140 = getelementptr inbounds nuw %struct.Agedge_s, ptr %139, i32 0, i32 3
  %141 = load ptr, ptr %140, align 8, !tbaa !80
  %142 = call ptr @agnameof(ptr noundef %141)
  %143 = call i32 (i32, ptr, ...) @agerr(i32 noundef 3, ptr noundef @.str.2, ptr noundef %123, ptr noundef %127, ptr noundef %142)
  br label %144

144:                                              ; preds = %97, %138, %104, %100
  br label %145

145:                                              ; preds = %144, %86
  br label %179

146:                                              ; preds = %83
  %147 = load ptr, ptr %8, align 8, !tbaa !20
  %148 = load ptr, ptr %7, align 8, !tbaa !26
  %149 = call ptr @strdup_and_subst_obj0(ptr noundef %147, ptr noundef %148, i32 noundef 0)
  %150 = load ptr, ptr %13, align 8, !tbaa !8
  %151 = getelementptr inbounds nuw %struct.textlabel_t, ptr %150, i32 0, i32 0
  store ptr %149, ptr %151, align 8, !tbaa !18
  %152 = load ptr, ptr %13, align 8, !tbaa !8
  %153 = getelementptr inbounds nuw %struct.textlabel_t, ptr %152, i32 0, i32 3
  %154 = load i32, ptr %153, align 8, !tbaa !21
  switch i32 %154, label %160 [
    i32 1, label %155
  ]

155:                                              ; preds = %146
  %156 = load ptr, ptr %13, align 8, !tbaa !8
  %157 = getelementptr inbounds nuw %struct.textlabel_t, ptr %156, i32 0, i32 0
  %158 = load ptr, ptr %157, align 8, !tbaa !18
  %159 = call ptr @latin1ToUTF8(ptr noundef %158)
  store ptr %159, ptr %18, align 8, !tbaa !20
  br label %166

160:                                              ; preds = %146
  %161 = load ptr, ptr %13, align 8, !tbaa !8
  %162 = getelementptr inbounds nuw %struct.textlabel_t, ptr %161, i32 0, i32 0
  %163 = load ptr, ptr %162, align 8, !tbaa !18
  %164 = load ptr, ptr %14, align 8, !tbaa !66
  %165 = call ptr @htmlEntityUTF8(ptr noundef %163, ptr noundef %164)
  store ptr %165, ptr %18, align 8, !tbaa !20
  br label %166

166:                                              ; preds = %160, %155
  %167 = load ptr, ptr %13, align 8, !tbaa !8
  %168 = getelementptr inbounds nuw %struct.textlabel_t, ptr %167, i32 0, i32 0
  %169 = load ptr, ptr %168, align 8, !tbaa !18
  call void @free(ptr noundef %169) #13
  %170 = load ptr, ptr %18, align 8, !tbaa !20
  %171 = load ptr, ptr %13, align 8, !tbaa !8
  %172 = getelementptr inbounds nuw %struct.textlabel_t, ptr %171, i32 0, i32 0
  store ptr %170, ptr %172, align 8, !tbaa !18
  %173 = load ptr, ptr %14, align 8, !tbaa !66
  %174 = getelementptr inbounds nuw %struct.Agobj_s, ptr %173, i32 0, i32 1
  %175 = load ptr, ptr %174, align 8, !tbaa !83
  %176 = getelementptr inbounds nuw %struct.Agraphinfo_t, ptr %175, i32 0, i32 14
  %177 = load ptr, ptr %176, align 8, !tbaa !96
  %178 = load ptr, ptr %13, align 8, !tbaa !8
  call void @make_simple_label(ptr noundef %177, ptr noundef %178)
  br label %179

179:                                              ; preds = %166, %145
  br label %180

180:                                              ; preds = %179, %82
  %181 = load ptr, ptr %13, align 8, !tbaa !8
  call void @llvm.lifetime.end.p0(i64 8, ptr %18) #13
  call void @llvm.lifetime.end.p0(i64 8, ptr %17) #13
  call void @llvm.lifetime.end.p0(i64 8, ptr %16) #13
  call void @llvm.lifetime.end.p0(i64 8, ptr %15) #13
  call void @llvm.lifetime.end.p0(i64 8, ptr %14) #13
  call void @llvm.lifetime.end.p0(i64 8, ptr %13) #13
  ret ptr %181
}