; Function Attrs: nounwind uwtable
define noundef ptr @make_label(ptr noundef %0, ptr noundef readonly captures(none) %1, i32 noundef %2, double noundef %3, ptr noundef %4, ptr noundef %5) local_unnamed_addr #0 {
  %7 = tail call noalias dereferenceable_or_null(112) ptr @calloc(i64 noundef 1, i64 noundef 112) #20
  %8 = icmp eq ptr %7, null
  br i1 %8, label %9, label %gv_alloc.exit

9:                                                ; preds = %6
  %10 = load ptr, ptr @stderr, align 8, !tbaa !17
  %11 = tail call i32 (ptr, ptr, ...) @fprintf(ptr noundef %10, ptr noundef nonnull @.str.6, i64 noundef 112) #17
  tail call fastcc void @graphviz_exit() #18
  unreachable

gv_alloc.exit:                                    ; preds = %6
  %12 = tail call i32 @agobjkind(ptr noundef %0) #16
  switch i32 %12, label %unreachable [
    i32 0, label %13
    i32 1, label %16
    i32 2, label %19
  ]

13:                                               ; preds = %gv_alloc.exit
  %14 = getelementptr inbounds nuw i8, ptr %0, i64 120
  %15 = load ptr, ptr %14, align 8, !tbaa !57
  br label %28

16:                                               ; preds = %gv_alloc.exit
  %17 = tail call ptr @agraphof(ptr noundef %0) #16
  %18 = tail call ptr @agroot(ptr noundef %17) #16
  br label %28

19:                                               ; preds = %gv_alloc.exit
  %20 = load i32, ptr %0, align 8
  %21 = and i32 %20, 3
  %22 = icmp eq i32 %21, 2
  %.idx = select i1 %22, i64 0, i64 -64
  %23 = getelementptr inbounds i8, ptr %0, i64 %.idx
  %24 = getelementptr inbounds nuw i8, ptr %23, i64 56
  %25 = load ptr, ptr %24, align 8, !tbaa !67
  %26 = tail call ptr @agraphof(ptr noundef %25) #16
  %27 = tail call ptr @agroot(ptr noundef %26) #16
  br label %28

unreachable:                                      ; preds = %gv_alloc.exit
  unreachable

28:                                               ; preds = %19, %16, %13
  %.053 = phi ptr [ %27, %19 ], [ %18, %16 ], [ %15, %13 ]
  %.052 = phi ptr [ null, %19 ], [ null, %16 ], [ %0, %13 ]
  %.051 = phi ptr [ null, %19 ], [ %0, %16 ], [ null, %13 ]
  %.050 = phi ptr [ %0, %19 ], [ null, %16 ], [ null, %13 ]
  %29 = getelementptr inbounds nuw i8, ptr %7, i64 8
  store ptr %4, ptr %29, align 8, !tbaa !24
  %30 = getelementptr inbounds nuw i8, ptr %7, i64 16
  store ptr %5, ptr %30, align 8, !tbaa !70
  %31 = getelementptr inbounds nuw i8, ptr %7, i64 32
  store double %3, ptr %31, align 8, !tbaa !28
  %32 = getelementptr inbounds nuw i8, ptr %.053, i64 16
  %33 = load ptr, ptr %32, align 8, !tbaa !71
  %34 = getelementptr inbounds nuw i8, ptr %33, i64 131
  %35 = load i8, ptr %34, align 1, !tbaa !72
  %36 = zext i8 %35 to i32
  %37 = getelementptr inbounds nuw i8, ptr %7, i64 24
  store i32 %36, ptr %37, align 8, !tbaa !14
  %38 = and i32 %2, 4
  %.not = icmp eq i32 %38, 0
  br i1 %.not, label %50, label %39

39:                                               ; preds = %28
  %40 = tail call noalias ptr @strdup(ptr noundef readonly %1) #16
  %41 = icmp eq ptr %40, null
  br i1 %41, label %42, label %gv_strdup.exit

42:                                               ; preds = %39
  %43 = load ptr, ptr @stderr, align 8, !tbaa !17
  %44 = tail call i64 @strlen(ptr noundef nonnull readonly dereferenceable(1) %1) #21
  %45 = add i64 %44, 1
  %46 = tail call i32 (ptr, ptr, ...) @fprintf(ptr noundef %43, ptr noundef nonnull @.str.6, i64 noundef %45) #17
  tail call fastcc void @graphviz_exit() #18
  unreachable

gv_strdup.exit:                                   ; preds = %39
  store ptr %40, ptr %7, align 8, !tbaa !3
  %47 = and i32 %2, 2
  %.not58 = icmp eq i32 %47, 0
  br i1 %.not58, label %98, label %48

48:                                               ; preds = %gv_strdup.exit
  %49 = getelementptr inbounds nuw i8, ptr %7, i64 106
  store i8 1, ptr %49, align 2, !tbaa !85
  br label %98

50:                                               ; preds = %28
  %51 = icmp eq i32 %2, 2
  br i1 %51, label %52, label %88

52:                                               ; preds = %50
  %53 = tail call noalias ptr @strdup(ptr noundef readonly %1) #16
  %54 = icmp eq ptr %53, null
  br i1 %54, label %55, label %gv_strdup.exit59

55:                                               ; preds = %52
  %56 = load ptr, ptr @stderr, align 8, !tbaa !17
  %57 = tail call i64 @strlen(ptr noundef nonnull readonly dereferenceable(1) %1) #21
  %58 = add i64 %57, 1
  %59 = tail call i32 (ptr, ptr, ...) @fprintf(ptr noundef %56, ptr noundef nonnull @.str.6, i64 noundef %58) #17
  tail call fastcc void @graphviz_exit() #18
  unreachable

gv_strdup.exit59:                                 ; preds = %52
  store ptr %53, ptr %7, align 8, !tbaa !3
  %60 = getelementptr inbounds nuw i8, ptr %7, i64 106
  store i8 1, ptr %60, align 2, !tbaa !85
  %61 = tail call i32 @make_html_label(ptr noundef %0, ptr noundef nonnull %7) #16
  %.not54 = icmp eq i32 %61, 0
  br i1 %.not54, label %98, label %62

62:                                               ; preds = %gv_strdup.exit59
  %63 = tail call i32 @agobjkind(ptr noundef %0) #16
  switch i32 %63, label %98 [
    i32 0, label %64
    i32 1, label %67
    i32 2, label %70
  ]

64:                                               ; preds = %62
  %65 = tail call ptr @agnameof(ptr noundef %.052) #16
  %66 = tail call i32 (i32, ptr, ...) @agerr(i32 noundef 3, ptr noundef nonnull @.str, ptr noundef %65) #16
  br label %98

67:                                               ; preds = %62
  %68 = tail call ptr @agnameof(ptr noundef %.051) #16
  %69 = tail call i32 (i32, ptr, ...) @agerr(i32 noundef 3, ptr noundef nonnull @.str.1, ptr noundef %68) #16
  br label %98

70:                                               ; preds = %62
  %71 = load i32, ptr %.050, align 8
  %72 = and i32 %71, 3
  %73 = icmp eq i32 %72, 3
  %.idx55 = select i1 %73, i64 0, i64 64
  %74 = getelementptr inbounds nuw i8, ptr %.050, i64 %.idx55
  %75 = getelementptr inbounds nuw i8, ptr %74, i64 56
  %76 = load ptr, ptr %75, align 8, !tbaa !67
  %77 = tail call ptr @agnameof(ptr noundef %76) #16
  %78 = tail call i32 @agisdirected(ptr noundef nonnull %.053) #16
  %.not56 = icmp eq i32 %78, 0
  %79 = select i1 %.not56, ptr @.str.4, ptr @.str.3
  %80 = load i32, ptr %.050, align 8
  %81 = and i32 %80, 3
  %82 = icmp eq i32 %81, 2
  %.idx57 = select i1 %82, i64 0, i64 -64
  %83 = getelementptr inbounds i8, ptr %.050, i64 %.idx57
  %84 = getelementptr inbounds nuw i8, ptr %83, i64 56
  %85 = load ptr, ptr %84, align 8, !tbaa !67
  %86 = tail call ptr @agnameof(ptr noundef %85) #16
  %87 = tail call i32 (i32, ptr, ...) @agerr(i32 noundef 3, ptr noundef nonnull @.str.2, ptr noundef %77, ptr noundef nonnull %79, ptr noundef %86) #16
  br label %98

88:                                               ; preds = %50
  %89 = tail call fastcc ptr @strdup_and_subst_obj0(ptr noundef %1, ptr noundef %0, i32 noundef 0)
  %cond = icmp eq i8 %35, 1
  br i1 %cond, label %90, label %92

90:                                               ; preds = %88
  %91 = tail call ptr @latin1ToUTF8(ptr noundef %89) #16
  br label %94

92:                                               ; preds = %88
  %93 = tail call ptr @htmlEntityUTF8(ptr noundef %89, ptr noundef nonnull %.053) #16
  br label %94

94:                                               ; preds = %92, %90
  %.0 = phi ptr [ %91, %90 ], [ %93, %92 ]
  tail call void @free(ptr noundef %89) #16
  store ptr %.0, ptr %7, align 8, !tbaa !3
  %95 = load ptr, ptr %32, align 8, !tbaa !71
  %96 = getelementptr inbounds nuw i8, ptr %95, i64 168
  %97 = load ptr, ptr %96, align 8, !tbaa !86
  tail call void @make_simple_label(ptr noundef %97, ptr noundef nonnull %7)
  br label %98

98:                                               ; preds = %94, %62, %64, %67, %70, %gv_strdup.exit59, %gv_strdup.exit, %48
  ret ptr %7
}